; Function Attrs: nounwind sspstrong uwtable
define dso_local noundef zeroext i1 @visit_type_ChardevStdio_members(ptr noundef %v, ptr noundef %obj, ptr noundef %errp) local_unnamed_addr #0 {
entry:
  %has_logfile.i = alloca i8, align 1
  call void @llvm.lifetime.start.p0(i64 1, ptr nonnull %has_logfile.i)
  %0 = load ptr, ptr %obj, align 8
  %tobool.i = icmp ne ptr %0, null
  %frombool.i = zext i1 %tobool.i to i8
  store i8 %frombool.i, ptr %has_logfile.i, align 1
  %call.i = call zeroext i1 @visit_optional(ptr noundef %v, ptr noundef nonnull @.str.10, ptr noundef nonnull %has_logfile.i) #5
  br i1 %call.i, label %if.then.i, label %if.end5.i

if.then.i:                                        ; preds = %entry
  %call3.i = call zeroext i1 @visit_type_str(ptr noundef %v, ptr noundef nonnull @.str.10, ptr noundef nonnull %obj, ptr noundef %errp) #5
  br i1 %call3.i, label %if.end5.i, label %visit_type_ChardevCommon_members.exit.thread

if.end5.i:                                        ; preds = %if.then.i, %entry
  %has_logappend.i = getelementptr inbounds nuw i8, ptr %obj, i64 8
  %call6.i = call zeroext i1 @visit_optional(ptr noundef %v, ptr noundef nonnull @.str.11, ptr noundef nonnull %has_logappend.i) #5
  br i1 %call6.i, label %if.then7.i, label %if.end

if.then7.i:                                       ; preds = %if.end5.i
  %logappend.i = getelementptr inbounds nuw i8, ptr %obj, i64 9
  %call8.i = call zeroext i1 @visit_type_bool(ptr noundef %v, ptr noundef nonnull @.str.11, ptr noundef nonnull %logappend.i, ptr noundef %errp) #5
  br i1 %call8.i, label %if.end, label %visit_type_ChardevCommon_members.exit.thread

visit_type_ChardevCommon_members.exit.thread:     ; preds = %if.then.i, %if.then7.i
  call void @llvm.lifetime.end.p0(i64 1, ptr nonnull %has_logfile.i)
  br label %return

if.end:                                           ; preds = %if.then7.i, %if.end5.i
  call void @llvm.lifetime.end.p0(i64 1, ptr nonnull %has_logfile.i)
  %has_signal = getelementptr inbounds nuw i8, ptr %obj, i64 10
  %call1 = call zeroext i1 @visit_optional(ptr noundef %v, ptr noundef nonnull @.str.28, ptr noundef nonnull %has_signal) #5
  br i1 %call1, label %if.then2, label %if.end6

if.then2:                                         ; preds = %if.end
  %signal = getelementptr inbounds nuw i8, ptr %obj, i64 11
  %call3 = call zeroext i1 @visit_type_bool(ptr noundef %v, ptr noundef nonnull @.str.28, ptr noundef nonnull %signal, ptr noundef %errp) #5
  br i1 %call3, label %if.end6, label %return

if.end6:                                          ; preds = %if.then2, %if.end
  br label %return

return:                                           ; preds = %visit_type_ChardevCommon_members.exit.thread, %if.then2, %if.end6
  %retval.0 = phi i1 [ true, %if.end6 ], [ false, %if.then2 ], [ false, %visit_type_ChardevCommon_members.exit.thread ]
  ret i1 %retval.0
}